target datalayout = "e-m:e-p270:32:32-p271:32:32-p272:64:64-i64:64-i128:128-f80:128-n8:16:32:64-S128"
target triple = "x86_64-pc-linux-gnu"

%class.ThreadCritical = type { i8 }
%class.EventLog = type { ptr, ptr }

@_ZN6Events5_logsE = hidden global ptr null, align 8
@_ZTV8EventLog = linkonce_odr hidden unnamed_addr constant { [5 x ptr] } { [5 x ptr] [ptr null, ptr null, ptr @__cxa_pure_virtual, ptr @__cxa_pure_virtual, ptr @__cxa_pure_virtual] }, comdat, align 8

; Function Attrs: mustprogress nounwind uwtable
define hidden void @_ZN8EventLogC2Ev(ptr noundef nonnull align 8 dereferenceable(16) %0) unnamed_addr #1 align 2 {
  %2 = alloca ptr, align 8
  %3 = alloca %class.ThreadCritical, align 1
  store ptr %0, ptr %2, align 8
  %4 = load ptr, ptr %2, align 8
  store ptr getelementptr inbounds inrange(-16, 24) ({ [5 x ptr] }, ptr @_ZTV8EventLog, i32 0, i32 0, i32 2), ptr %4, align 8
  call void @_ZN14ThreadCriticalC1Ev(ptr noundef nonnull align 1 dereferenceable(1) %3)
  %5 = load ptr, ptr @_ZN6Events5_logsE, align 8
  %6 = getelementptr inbounds %class.EventLog, ptr %4, i32 0, i32 1
  store ptr %5, ptr %6, align 8
  store ptr %4, ptr @_ZN6Events5_logsE, align 8
  call void @_ZN14ThreadCriticalD1Ev(ptr noundef nonnull align 1 dereferenceable(1) %3) #8
  ret void
}