; Function Attrs: mustprogress nounwind uwtable
define hidden void @_ZN8EventLogC2Ev(ptr noundef nonnull align 8 dereferenceable(16) %0) unnamed_addr #0 align 2 {
  %2 = alloca %class.ThreadCritical, align 1
  store ptr getelementptr inbounds inrange(-16, 24) (i8, ptr @_ZTV8EventLog, i64 16), ptr %0, align 8
  call void @_ZN14ThreadCriticalC1Ev(ptr noundef nonnull align 1 dereferenceable(1) %2) #10
  %3 = load ptr, ptr @_ZN6Events5_logsE, align 8
  %4 = getelementptr inbounds i8, ptr %0, i64 8
  store ptr %3, ptr %4, align 8
  store ptr %0, ptr @_ZN6Events5_logsE, align 8
  call void @_ZN14ThreadCriticalD1Ev(ptr noundef nonnull align 1 dereferenceable(1) %2) #10
  ret void
}